Certificate:
    Data:
        Version: 3 (0x2)
        Serial Number: 5 (0x5)
        Signature Algorithm: sha256WithRSAEncryption
        Issuer: C=CA, ST=Ontario, L=Ottawa, O=ConnectUs Technologies, OU=Testing Department, CN=Test CA Not For Deployment/emailAddress=test@example.com
        Validity
            Not Before: Sep 26 23:53:16 2020 GMT
            Not After : Jun 23 23:53:16 2023 GMT
        Subject: C=CA, ST=Ontario, L=Ottawa, O=ConnectUs Technologies, CN=Open_AP
        Subject Public Key Info:
            Public Key Algorithm: rsaEncryption
                RSA Public-Key: (2048 bit)
                Modulus:
                    00:c9:2e:30:4d:ec:16:ec:d9:ad:b9:32:08:20:b6:
                    89:c6:3b:ea:49:1f:11:fa:38:99:9e:57:fc:6f:e8:
                    09:64:1d:d5:2d:2e:4d:78:2d:a9:dc:e5:e4:25:c5:
                    99:d9:24:1d:60:0d:95:c1:09:c4:cd:14:14:9d:41:
                    65:0f:05:f3:40:78:a5:04:ea:c8:a9:df:20:02:f7:
                    40:4a:57:64:6c:f4:3a:42:3c:06:78:c5:68:f9:62:
                    1b:ef:d0:eb:c0:de:82:a8:b1:0f:77:11:1a:40:e9:
                    47:34:16:d1:5b:4b:d3:33:81:2a:4d:9b:01:9d:7b:
                    54:21:2e:14:5e:72:d5:c8:bb:d9:7f:92:6f:a6:89:
                    aa:e8:8e:2d:f6:d9:b9:0a:1b:79:09:62:eb:43:b7:
                    77:92:bd:6c:d5:e1:93:ab:4e:4a:cf:c2:1e:58:4c:
                    d4:8c:9a:59:ab:84:52:61:70:8e:37:70:a4:fc:4c:
                    af:65:f3:78:d7:d2:17:78:ed:1f:d0:17:4a:dc:ef:
                    88:18:ec:76:ee:c2:80:8a:46:f9:3c:8b:af:06:1b:
                    d3:58:a5:a6:23:48:c9:cd:8d:1b:4b:25:b8:01:cc:
                    33:99:15:6d:de:b0:21:f7:7c:71:f7:48:5d:ea:ea:
                    4b:8a:41:b5:42:78:dc:b4:d0:eb:a1:f4:15:6a:6d:
                    f2:01
                Exponent: 65537 (0x10001)
        X509v3 extensions:
            X509v3 Subject Key Identifier: 
                18:0A:DD:40:34:F2:BF:F9:88:E0:A6:7D:05:0F:37:A5:52:CC:49:DD
            X509v3 Authority Key Identifier: 
                keyid:CB:94:2C:DD:17:CB:8C:19:32:D9:D1:79:3F:7F:09:ED:72:72:1E:E8

            X509v3 Basic Constraints: 
                CA:FALSE
            X509v3 Key Usage: 
                Digital Signature
            X509v3 Extended Key Usage: critical
                TLS Web Client Authentication
            Netscape Comment: 
                OpenSSL Generated Client Certificate
    Signature Algorithm: sha256WithRSAEncryption
         17:b4:85:3e:f5:90:2d:ee:fd:56:ae:2b:7f:39:a6:60:8b:c6:
         5f:9b:ea:99:bf:fc:15:4c:d1:9a:a1:80:29:70:f0:1a:74:6f:
         7e:0e:6f:92:3b:b7:75:96:78:ad:cd:b8:28:db:99:c5:d3:5b:
         ec:48:cf:21:86:7e:fb:96:60:f2:ce:bf:57:fa:ce:43:f5:32:
         9f:6b:f9:98:61:ee:3f:ad:84:e9:f0:b9:7c:8f:b4:fd:f2:12:
         a3:4b:68:b1:7d:b8:fc:bd:50:7a:e6:14:f3:bc:30:92:ce:a3:
         35:fa:be:46:1a:d7:90:9f:91:cb:f4:09:11:65:ce:ec:26:74:
         1a:a7:30:65:11:32:f6:95:8f:26:c0:3f:2d:d3:9b:22:58:80:
         4a:5b:78:13:4a:9d:88:34:69:e2:e2:e3:63:72:bf:6d:4b:b0:
         c3:33:74:76:35:c3:52:05:f4:f4:37:b5:64:8d:d8:c6:5e:81:
         74:ad:55:69:50:23:7b:f3:a0:a8:df:aa:c9:fe:fa:0d:6b:e8:
         84:5f:ae:08:bb:b2:f1:e2:9e:77:2d:39:fb:8d:1c:b0:8e:25:
         9c:cb:91:39:6b:bc:18:d2:18:05:0c:28:cb:36:78:dd:e9:cd:
         08:e8:4d:29:e5:eb:12:e9:7a:4e:0b:86:92:c4:8b:32:78:c8:
         0a:31:ff:83:aa:9f:69:32:7d:5e:1c:a1:a2:29:96:88:f1:f5:
         2c:b7:f0:55:7d:f8:18:20:2b:a0:6b:a8:91:0a:81:0c:b5:b3:
         bc:7e:55:0b:0d:eb:93:ba:fa:7d:ff:f8:02:b2:b1:b5:25:bb:
         51:1f:34:8d:86:3f:f0:07:3d:21:67:19:f3:30:61:4b:82:e0:
         12:1e:7c:10:66:fa:88:fd:5d:1d:f3:cd:75:cf:6b:0c:eb:38:
         22:f9:d7:b7:66:26:24:41:a7:5e:ae:8a:a5:9b:13:0a:03:7a:
         47:d1:9d:b6:90:58:e6:b8:32:f7:07:f1:c7:9c:d4:0e:67:34:
         66:ec:d7:92:b3:7d:7b:83:ca:6e:6f:fd:57:ce:19:ac:79:86:
         76:5b:63:4f:4b:41:1a:da:f6:b0:1c:b5:dc:42:16:16:a0:97:
         f3:1a:4d:68:09:42:00:b4:1c:7c:7d:ba:7f:80:f6:9d:e8:f1:
         91:ba:40:82:06:f3:da:76:70:35:af:c7:32:06:c6:97:98:a0:
         c5:d8:0c:6a:bb:86:f5:ea:9a:57:c7:21:d7:03:e2:52:b0:de:
         5e:06:f8:16:5a:1d:83:76:d5:e3:6c:e0:0a:92:47:84:bf:85:
         f5:5d:84:2c:25:9a:78:fe:a4:ff:4c:8d:69:9e:8b:47:1e:ca:
         4e:c4:87:e6:70:79:4a:f0
-----BEGIN CERTIFICATE-----
MIIFPDCCAySgAwIBAgIBBTANBgkqhkiG9w0BAQsFADCBtDELMAkGA1UEBhMCQ0Ex
EDAOBgNVBAgMB09udGFyaW8xDzANBgNVBAcMBk90dGF3YTEfMB0GA1UECgwWQ29u
bmVjdFVzIFRlY2hub2xvZ2llczEbMBkGA1UECwwSVGVzdGluZyBEZXBhcnRtZW50
MSMwIQYDVQQDDBpUZXN0IENBIE5vdCBGb3IgRGVwbG95bWVudDEfMB0GCSqGSIb3
DQEJARYQdGVzdEBleGFtcGxlLmNvbTAeFw0yMDA5MjYyMzUzMTZaFw0yMzA2MjMy
MzUzMTZaMGMxCzAJBgNVBAYTAkNBMRAwDgYDVQQIDAdPbnRhcmlvMQ8wDQYDVQQH
DAZPdHRhd2ExHzAdBgNVBAoMFkNvbm5lY3RVcyBUZWNobm9sb2dpZXMxEDAOBgNV
BAMMB09wZW5fQVAwggEiMA0GCSqGSIb3DQEBAQUAA4IBDwAwggEKAoIBAQDJLjBN
7Bbs2a25MgggtonGO+pJHxH6OJmeV/xv6AlkHdUtLk14Lanc5eQlxZnZJB1gDZXB
CcTNFBSdQWUPBfNAeKUE6sip3yAC90BKV2Rs9DpCPAZ4xWj5Yhvv0OvA3oKosQ93
ERpA6Uc0FtFbS9MzgSpNmwGde1QhLhRectXIu9l/km+miaroji322bkKG3kJYutD
t3eSvWzV4ZOrTkrPwh5YTNSMmlmrhFJhcI43cKT8TK9l83jX0hd47R/QF0rc74gY
7HbuwoCKRvk8i68GG9NYpaYjSMnNjRtLJbgBzDOZFW3esCH3fHH3SF3q6kuKQbVC
eNy00Ouh9BVqbfIBAgMBAAGjgagwgaUwHQYDVR0OBBYEFBgK3UA08r/5iOCmfQUP
N6VSzEndMB8GA1UdIwQYMBaAFMuULN0Xy4wZMtnReT9/Ce1ych7oMAkGA1UdEwQC
MAAwCwYDVR0PBAQDAgeAMBYGA1UdJQEB/wQMMAoGCCsGAQUFBwMCMDMGCWCGSAGG
+EIBDQQmFiRPcGVuU1NMIEdlbmVyYXRlZCBDbGllbnQgQ2VydGlmaWNhdGUwDQYJ
KoZIhvcNAQELBQADggIBABe0hT71kC3u/VauK385pmCLxl+b6pm//BVM0ZqhgClw
8Bp0b34Ob5I7t3WWeK3NuCjbmcXTW+xIzyGGfvuWYPLOv1f6zkP1Mp9r+Zhh7j+t
hOnwuXyPtP3yEqNLaLF9uPy9UHrmFPO8MJLOozX6vkYa15Cfkcv0CRFlzuwmdBqn
MGURMvaVjybAPy3TmyJYgEpbeBNKnYg0aeLi42Nyv21LsMMzdHY1w1IF9PQ3tWSN
2MZegXStVWlQI3vzoKjfqsn++g1r6IRfrgi7svHinnctOfuNHLCOJZzLkTlrvBjS
GAUMKMs2eN3pzQjoTSnl6xLpek4LhpLEizJ4yAox/4Oqn2kyfV4coaIplojx9Sy3
8FV9+BggK6BrqJEKgQy1s7x+VQsN65O6+n3/+AKysbUlu1EfNI2GP/AHPSFnGfMw
YUuC4BIefBBm+oj9XR3zzXXPawzrOCL517dmJiRBp16uiqWbEwoDekfRnbaQWOa4
MvcH8cec1A5nNGbs15KzfXuDym5v/VfOGax5hnZbY09LQRra9rActdxCFhagl/Ma
TWgJQgC0HHx9un+A9p3o8ZG6QIIG89p2cDWvxzIGxpeYoMXYDGq7hvXqmlfHIdcD
4lKw3l4G+BZaHYN21eNs4AqSR4S/hfVdhCwlmnj+pP9MjWmei0ceyk7Eh+ZweUrw
-----END CERTIFICATE-----
