Certificate:
    Data:
        Version: 3 (0x2)
        Serial Number: 2 (0x2)
        Signature Algorithm: sha256WithRSAEncryption
        Issuer: C=CA, ST=Ontario, L=Ottawa, O=ConnectUs Technologies, OU=Testing Department, CN=Test CA Not For Deployment/emailAddress=test@example.com
        Validity
            Not Before: Sep 26 23:53:16 2020 GMT
            Not After : Jun 23 23:53:16 2023 GMT
        Subject: C=CA, ST=Ontario, L=Ottawa, O=ConnectUs Technologies, CN=opensync-mqtt-broker.wlan.local
        Subject Public Key Info:
            Public Key Algorithm: rsaEncryption
                RSA Public-Key: (2048 bit)
                Modulus:
                    00:b2:e4:e0:3b:6d:2e:3d:59:d0:35:65:49:0b:90:
                    81:0f:ac:85:35:ca:b0:76:1c:69:3a:7f:33:23:43:
                    fe:4e:47:7c:e5:90:42:78:8c:b7:51:cc:26:f6:cf:
                    dd:b3:6a:9a:62:d1:fe:bd:6f:ba:08:bc:ca:04:7d:
                    3b:04:ea:64:d7:27:17:38:55:b3:e0:59:2d:e1:8c:
                    2b:0f:14:d0:c3:97:82:1e:c9:14:23:78:4c:41:78:
                    6e:dc:0a:25:e5:bf:61:3f:b4:84:c2:8d:46:5d:34:
                    4b:cc:6a:6e:ab:ea:75:ad:51:a7:0d:cb:81:d7:b6:
                    7e:ea:ce:f9:8d:50:2d:d4:dc:80:74:65:52:0b:38:
                    21:f0:79:59:3a:7c:b5:86:c2:e3:f9:2a:c4:c4:8f:
                    dd:ab:cc:9a:6b:db:b8:e6:54:18:31:9c:a0:47:25:
                    7d:5b:37:48:d0:3a:e6:62:ad:17:d9:1c:76:53:7a:
                    b8:e3:03:29:30:2e:73:21:6a:9d:e6:a0:59:7f:9d:
                    29:d7:51:71:83:fd:68:57:bc:7d:4f:28:66:89:bc:
                    a7:c0:c9:59:44:f7:be:41:eb:3f:fb:fa:7d:47:01:
                    c8:38:b2:14:93:37:ae:40:58:69:5f:07:d9:bc:79:
                    24:a9:68:69:6c:f0:0d:4b:a4:93:c1:82:40:61:b9:
                    7e:51
                Exponent: 65537 (0x10001)
        X509v3 extensions:
            X509v3 Subject Key Identifier: 
                34:CF:D9:BA:6D:89:1E:94:94:A9:08:88:D7:30:D5:91:DC:D3:90:10
            X509v3 Authority Key Identifier: 
                keyid:CB:94:2C:DD:17:CB:8C:19:32:D9:D1:79:3F:7F:09:ED:72:72:1E:E8

            X509v3 Basic Constraints: 
                CA:FALSE
            X509v3 Key Usage: 
                Digital Signature, Key Encipherment
            X509v3 Extended Key Usage: critical
                TLS Web Server Authentication
            Netscape Comment: 
                OpenSSL Generated Server Certificate
    Signature Algorithm: sha256WithRSAEncryption
         01:c2:ac:52:ec:c6:c7:c2:c6:72:90:b7:81:88:b5:36:dc:c4:
         9a:db:5f:1b:8c:a8:ed:98:2c:73:ff:1c:c6:89:01:a5:24:0a:
         1c:9a:ab:11:aa:f9:d7:20:b2:ff:49:a6:60:62:b8:d4:29:c4:
         69:f0:13:25:fe:37:5a:c3:01:48:b1:bf:42:18:56:f6:f1:aa:
         e9:79:9b:10:4c:d0:01:bf:fa:05:63:48:c3:d1:7f:50:1e:cb:
         37:77:42:6f:2e:f3:11:09:71:87:13:62:0c:7a:1b:09:28:f2:
         7e:ae:67:66:44:8d:15:4c:d9:1a:15:db:3c:e8:2f:cd:4c:2e:
         dc:19:94:65:41:d7:8a:36:d1:ef:6d:e1:22:c1:42:2d:27:b9:
         cc:0f:f4:c4:a6:ed:0a:b9:91:66:13:30:1b:cc:d1:d6:b8:1e:
         28:45:ce:74:ca:48:35:3a:b1:d7:f5:4f:22:4c:f0:d1:a2:4a:
         81:17:25:0e:a2:c1:42:94:62:e8:a4:ba:43:d9:ff:27:14:62:
         35:04:0d:f1:47:4f:67:f6:68:65:fd:cf:cc:e0:30:2d:7b:8f:
         78:20:29:8f:9e:c7:51:1d:16:a2:c1:4a:01:26:f9:c3:90:a1:
         be:c0:73:e1:ce:d7:a3:a0:06:36:20:4d:17:fe:77:cb:42:a9:
         af:10:19:b5:be:8d:a8:2d:8f:3a:5b:05:2d:97:6c:c1:da:dd:
         21:ab:0f:ea:51:72:08:e0:a1:dd:e6:93:82:f1:d3:ca:80:b6:
         86:3e:98:58:1a:c7:bd:c0:8a:81:f8:49:49:9e:15:8a:b4:60:
         f5:c7:47:de:22:51:92:70:ab:54:69:a1:e8:d2:73:c5:86:a7:
         08:f2:71:69:ad:2a:13:18:c4:67:b4:a4:16:bd:5d:35:a7:34:
         01:7a:6e:45:e1:f5:26:59:25:61:a7:dd:c1:72:4d:49:21:21:
         9b:bc:99:5c:dc:0e:08:7c:66:e9:63:3a:27:bd:9a:93:a1:13:
         22:27:41:a4:53:5f:96:d8:df:dc:e7:a1:f3:51:fb:bb:1e:54:
         34:e9:5f:e5:52:b3:19:af:1c:79:2b:f2:53:a2:43:e8:f0:37:
         fa:dd:73:f3:1d:da:35:d7:82:0a:f4:70:5f:b9:28:18:45:64:
         f9:d8:9f:ad:ac:59:bb:ac:12:c3:35:93:8b:6f:51:cc:f9:b9:
         f3:57:aa:a5:94:fc:83:2d:4c:1e:76:c8:c5:8d:fa:d8:c6:b3:
         ff:bd:c0:f8:f3:51:a3:1b:61:54:30:48:18:15:ef:01:0e:9e:
         fc:9b:b4:f3:91:b4:8b:d6:b0:b9:e2:b2:e0:9d:1d:d0:f8:de:
         87:10:1c:c1:04:2c:4a:ff
-----BEGIN CERTIFICATE-----
MIIFVDCCAzygAwIBAgIBAjANBgkqhkiG9w0BAQsFADCBtDELMAkGA1UEBhMCQ0Ex
EDAOBgNVBAgMB09udGFyaW8xDzANBgNVBAcMBk90dGF3YTEfMB0GA1UECgwWQ29u
bmVjdFVzIFRlY2hub2xvZ2llczEbMBkGA1UECwwSVGVzdGluZyBEZXBhcnRtZW50
MSMwIQYDVQQDDBpUZXN0IENBIE5vdCBGb3IgRGVwbG95bWVudDEfMB0GCSqGSIb3
DQEJARYQdGVzdEBleGFtcGxlLmNvbTAeFw0yMDA5MjYyMzUzMTZaFw0yMzA2MjMy
MzUzMTZaMHsxCzAJBgNVBAYTAkNBMRAwDgYDVQQIDAdPbnRhcmlvMQ8wDQYDVQQH
DAZPdHRhd2ExHzAdBgNVBAoMFkNvbm5lY3RVcyBUZWNobm9sb2dpZXMxKDAmBgNV
BAMMH29wZW5zeW5jLW1xdHQtYnJva2VyLndsYW4ubG9jYWwwggEiMA0GCSqGSIb3
DQEBAQUAA4IBDwAwggEKAoIBAQCy5OA7bS49WdA1ZUkLkIEPrIU1yrB2HGk6fzMj
Q/5OR3zlkEJ4jLdRzCb2z92zappi0f69b7oIvMoEfTsE6mTXJxc4VbPgWS3hjCsP
FNDDl4IeyRQjeExBeG7cCiXlv2E/tITCjUZdNEvMam6r6nWtUacNy4HXtn7qzvmN
UC3U3IB0ZVILOCHweVk6fLWGwuP5KsTEj92rzJpr27jmVBgxnKBHJX1bN0jQOuZi
rRfZHHZTerjjAykwLnMhap3moFl/nSnXUXGD/WhXvH1PKGaJvKfAyVlE975B6z/7
+n1HAcg4shSTN65AWGlfB9m8eSSpaGls8A1LpJPBgkBhuX5RAgMBAAGjgagwgaUw
HQYDVR0OBBYEFDTP2bptiR6UlKkIiNcw1ZHc05AQMB8GA1UdIwQYMBaAFMuULN0X
y4wZMtnReT9/Ce1ych7oMAkGA1UdEwQCMAAwCwYDVR0PBAQDAgWgMBYGA1UdJQEB
/wQMMAoGCCsGAQUFBwMBMDMGCWCGSAGG+EIBDQQmFiRPcGVuU1NMIEdlbmVyYXRl
ZCBTZXJ2ZXIgQ2VydGlmaWNhdGUwDQYJKoZIhvcNAQELBQADggIBAAHCrFLsxsfC
xnKQt4GItTbcxJrbXxuMqO2YLHP/HMaJAaUkChyaqxGq+dcgsv9JpmBiuNQpxGnw
EyX+N1rDAUixv0IYVvbxqul5mxBM0AG/+gVjSMPRf1Aeyzd3Qm8u8xEJcYcTYgx6
Gwko8n6uZ2ZEjRVM2RoV2zzoL81MLtwZlGVB14o20e9t4SLBQi0nucwP9MSm7Qq5
kWYTMBvM0da4HihFznTKSDU6sdf1TyJM8NGiSoEXJQ6iwUKUYuikukPZ/ycUYjUE
DfFHT2f2aGX9z8zgMC17j3ggKY+ex1EdFqLBSgEm+cOQob7Ac+HO16OgBjYgTRf+
d8tCqa8QGbW+jagtjzpbBS2XbMHa3SGrD+pRcgjgod3mk4Lx08qAtoY+mFgax73A
ioH4SUmeFYq0YPXHR94iUZJwq1RpoejSc8WGpwjycWmtKhMYxGe0pBa9XTWnNAF6
bkXh9SZZJWGn3cFyTUkhIZu8mVzcDgh8ZuljOie9mpOhEyInQaRTX5bY39znofNR
+7seVDTpX+VSsxmvHHkr8lOiQ+jwN/rdc/Md2jXXggr0cF+5KBhFZPnYn62sWbus
EsM1k4tvUcz5ufNXqqWU/IMtTB52yMWN+tjGs/+9wPjzUaMbYVQwSBgV7wEOnvyb
tPORtIvWsLnisuCdHdD43ocQHMEELEr/
-----END CERTIFICATE-----
